Certificate:
    Data:
        Version: 3 (0x2)
        Serial Number: 2 (0x2)
        Signature Algorithm: sha1WithRSAEncryption
        Issuer: C=BA, ST=RS, L=Banja Luka, O=Elektrotehnicki fakultet, OU=ETF, CN=CA tijelo/emailAddress=ca@mail.com
        Validity
            Not Before: Apr  6 09:04:02 2023 GMT
            Not After : Oct  3 09:04:02 2023 GMT
        Subject: C=BA, ST=RS, O=Elektrotehnicki fakultet, OU=ETF, CN=user2/emailAddress=user2@mail.com
        Subject Public Key Info:
            Public Key Algorithm: rsaEncryption
                Public-Key: (2048 bit)
                Modulus:
                    00:c0:bf:4f:2a:5d:6a:a7:d0:e7:52:0d:ad:17:57:
                    b4:4e:97:b9:aa:33:cd:55:e0:81:e3:14:f8:39:54:
                    a4:0b:e0:5e:b0:90:98:03:14:43:0f:d4:1f:6d:96:
                    5f:29:6c:48:4f:d7:da:72:32:34:67:46:d3:68:42:
                    38:9a:ad:ae:69:96:d9:d6:5d:e7:14:e8:84:65:e2:
                    cc:26:9d:f1:43:08:f2:44:aa:3e:4a:c5:85:6f:bd:
                    b8:94:04:57:3b:f6:af:b4:9d:f9:7b:f2:6d:1c:59:
                    5f:48:04:0e:bd:2a:90:85:33:41:c8:06:ae:27:13:
                    2e:8a:eb:0b:44:f4:fe:ca:52:a3:53:3a:d7:55:1d:
                    9b:0b:2e:3b:13:d7:83:33:51:c5:c1:44:09:4f:85:
                    06:65:f3:ae:d4:12:bb:58:f5:ca:56:07:f3:5b:bf:
                    ef:8d:9d:d0:b2:d2:91:f6:ab:ef:9a:66:5f:8a:01:
                    9e:22:e0:26:7c:f9:bb:69:38:93:20:5c:b5:6d:aa:
                    48:25:41:6a:24:8b:3e:35:0a:d1:0b:76:73:d6:16:
                    81:48:6a:7c:28:36:4c:6a:1f:af:6c:e2:ec:39:95:
                    ba:ea:b1:ec:50:2c:a6:e6:24:0b:78:c0:a3:59:17:
                    4e:92:f6:e4:ea:8e:3b:52:ed:58:c3:4b:d7:9f:f7:
                    26:c5
                Exponent: 65537 (0x10001)
        X509v3 extensions:
            X509v3 Basic Constraints: 
                CA:FALSE
            X509v3 Key Usage: 
                Digital Signature
            Netscape Comment: 
                OpenSSL Generated Certificate
            X509v3 Subject Key Identifier: 
                FD:88:41:07:EF:44:FD:F5:E6:BD:DC:2A:70:B0:3F:7C:08:10:43:44
            X509v3 Authority Key Identifier: 
                25:93:65:22:C2:65:97:E5:84:A9:A3:7F:35:5E:7E:85:F4:21:AF:40
            X509v3 CRL Distribution Points: 
                Full Name:
                  URI:http://192.168.21.89/rootcrl.pem
    Signature Algorithm: sha1WithRSAEncryption
    Signature Value:
        96:c3:b0:4c:f4:4e:d1:33:9d:1a:41:2c:91:a2:d1:a6:80:ec:
        1b:bb:42:87:3e:38:9d:88:0a:7e:8c:fd:1b:4a:d2:b4:f8:ed:
        16:b3:00:5a:ec:58:1d:a4:3c:17:b8:58:31:6a:ab:59:6c:a9:
        8d:64:17:c2:cf:ce:e7:ac:22:37:e9:fa:82:bf:9a:ba:ed:89:
        16:3f:e0:2e:05:18:c1:b8:dc:b8:94:7a:b5:fc:7e:44:8a:cb:
        03:18:76:77:be:5b:f0:db:22:d0:12:57:1b:39:44:f0:98:ea:
        89:d5:47:c8:03:53:98:d8:36:c7:37:0b:60:ec:a8:7d:03:0f:
        2a:d4:c4:ea:c9:86:c1:49:f8:4e:b9:7b:6e:92:79:37:3f:4c:
        fd:85:de:0c:ed:f0:a0:67:6a:02:34:b7:a7:f6:6e:99:4c:10:
        27:d3:c6:2f:67:ea:2e:9e:ff:0b:65:70:cd:86:45:b7:06:e4:
        18:9e:af:ce:f3:32:05:a2:a0:49:cf:bf:19:f9:49:49:14:1e:
        41:85:3c:79:69:c2:c4:6a:91:a8:ae:6e:01:96:51:02:ec:32:
        3b:c4:e7:de:63:01:d5:3b:e3:1e:02:c0:ad:ba:00:2e:83:38:
        d3:bc:a3:9f:f9:fc:83:c4:4a:17:f1:07:4e:9e:94:e6:07:e3:
        08:a4:41:13:80:98:39:39:02:59:52:92:1c:01:ba:2e:02:6e:
        41:7d:3e:f0:9f:52:35:59:7c:27:50:f8:7b:1d:d2:9b:ed:00:
        e9:fe:74:9b:8a:05:eb:fb:40:9d:ae:f3:88:11:4d:20:bc:1c:
        6e:6e:87:c3:c1:7f:75:c0:7b:d0:07:73:ec:54:5a:c3:30:ab:
        90:95:84:fc:8d:3b:25:69:d6:e9:41:01:9b:17:32:90:89:83:
        6a:26:9b:0b:af:4f:0c:df:95:b7:61:ff:46:8d:ca:2a:14:76:
        82:20:e3:ec:f9:d1:75:e8:1a:b3:84:62:ac:1f:d5:a6:e1:71:
        a2:7e:b5:7b:08:71:f0:3d:95:46:b1:4b:fb:f3:2a:e4:fb:e2:
        50:4b:03:27:a5:48:32:6e:88:8c:c3:23:c8:2b:de:21:48:51:
        1a:72:ac:fa:61:e5:71:81:dc:68:a1:5f:3d:f9:88:5a:de:29:
        83:9a:e2:e3:2f:42:cc:13:63:81:6c:4b:ac:5d:ac:b0:57:51:
        d4:f3:2c:08:51:68:06:6c:ab:f6:fa:be:44:74:34:a7:bb:ca:
        fe:92:a4:ec:e6:d1:1e:23:bb:fb:36:4e:83:53:93:87:40:88:
        a7:3b:9d:28:4a:5a:ca:03:d8:b9:c4:2e:4d:03:59:dd:c4:b6:
        63:37:21:78:6e:07:e7:10
-----BEGIN CERTIFICATE-----
MIIFQzCCAyugAwIBAgIBAjANBgkqhkiG9w0BAQUFADCBkDELMAkGA1UEBhMCQkEx
CzAJBgNVBAgTAlJTMRMwEQYDVQQHEwpCYW5qYSBMdWthMSEwHwYDVQQKExhFbGVr
dHJvdGVobmlja2kgZmFrdWx0ZXQxDDAKBgNVBAsTA0VURjESMBAGA1UEAxMJQ0Eg
dGlqZWxvMRowGAYJKoZIhvcNAQkBFgtjYUBtYWlsLmNvbTAeFw0yMzA0MDYwOTA0
MDJaFw0yMzEwMDMwOTA0MDJaMHoxCzAJBgNVBAYTAkJBMQswCQYDVQQIEwJSUzEh
MB8GA1UEChMYRWxla3Ryb3RlaG5pY2tpIGZha3VsdGV0MQwwCgYDVQQLEwNFVEYx
DjAMBgNVBAMTBXVzZXIyMR0wGwYJKoZIhvcNAQkBFg51c2VyMkBtYWlsLmNvbTCC
ASIwDQYJKoZIhvcNAQEBBQADggEPADCCAQoCggEBAMC/TypdaqfQ51INrRdXtE6X
uaozzVXggeMU+DlUpAvgXrCQmAMUQw/UH22WXylsSE/X2nIyNGdG02hCOJqtrmmW
2dZd5xTohGXizCad8UMI8kSqPkrFhW+9uJQEVzv2r7Sd+XvybRxZX0gEDr0qkIUz
QcgGricTLorrC0T0/spSo1M611UdmwsuOxPXgzNRxcFECU+FBmXzrtQSu1j1ylYH
81u/742d0LLSkfar75pmX4oBniLgJnz5u2k4kyBctW2qSCVBaiSLPjUK0Qt2c9YW
gUhqfCg2TGofr2zi7DmVuuqx7FAspuYkC3jAo1kXTpL25OqOO1LtWMNL15/3JsUC
AwEAAaOBvDCBuTAJBgNVHRMEAjAAMAsGA1UdDwQEAwIHgDAsBglghkgBhvhCAQ0E
HxYdT3BlblNTTCBHZW5lcmF0ZWQgQ2VydGlmaWNhdGUwHQYDVR0OBBYEFP2IQQfv
RP315r3cKnCwP3wIEENEMB8GA1UdIwQYMBaAFCWTZSLCZZflhKmjfzVefoX0Ia9A
MDEGA1UdHwQqMCgwJqAkoCKGIGh0dHA6Ly8xOTIuMTY4LjIxLjg5L3Jvb3Rjcmwu
cGVtMA0GCSqGSIb3DQEBBQUAA4ICAQCWw7BM9E7RM50aQSyRotGmgOwbu0KHPjid
iAp+jP0bStK0+O0WswBa7FgdpDwXuFgxaqtZbKmNZBfCz87nrCI36fqCv5q67YkW
P+AuBRjBuNy4lHq1/H5EissDGHZ3vlvw2yLQElcbOUTwmOqJ1UfIA1OY2DbHNwtg
7Kh9Aw8q1MTqyYbBSfhOuXtuknk3P0z9hd4M7fCgZ2oCNLen9m6ZTBAn08YvZ+ou
nv8LZXDNhkW3BuQYnq/O8zIFoqBJz78Z+UlJFB5BhTx5acLEapGorm4BllEC7DI7
xOfeYwHVO+MeAsCtugAugzjTvKOf+fyDxEoX8QdOnpTmB+MIpEETgJg5OQJZUpIc
AbouAm5BfT7wn1I1WXwnUPh7HdKb7QDp/nSbigXr+0CdrvOIEU0gvBxubofDwX91
wHvQB3PsVFrDMKuQlYT8jTsladbpQQGbFzKQiYNqJpsLr08M35W3Yf9GjcoqFHaC
IOPs+dF16BqzhGKsH9Wm4XGifrV7CHHwPZVGsUv78yrk++JQSwMnpUgyboiMwyPI
K94hSFEacqz6YeVxgdxooV89+Yha3imDmuLjL0LME2OBbEusXaywV1HU8ywIUWgG
bKv2+r5EdDSnu8r+kqTs5tEeI7v7Nk6DU5OHQIinO50oSlrKA9i5xC5NA1ndxLZj
NyF4bgfnEA==
-----END CERTIFICATE-----
