Certificate:
    Data:
        Version: 3 (0x2)
        Serial Number: 3 (0x3)
        Signature Algorithm: sha1WithRSAEncryption
        Issuer: C=BA, ST=RS, L=Banja Luka, O=Elektrotehnicki fakultet, OU=ETF, CN=CA tijelo/emailAddress=ca@mail.com
        Validity
            Not Before: Apr  6 09:09:40 2023 GMT
            Not After : Oct  3 09:09:40 2023 GMT
        Subject: C=BA, ST=RS, O=Elektrotehnicki fakultet, OU=ETF, CN=user3/emailAddress=user3@mail.com
        Subject Public Key Info:
            Public Key Algorithm: rsaEncryption
                Public-Key: (2048 bit)
                Modulus:
                    00:cf:a8:e0:e5:0f:bd:6f:b4:e9:eb:3a:ae:ad:ed:
                    bf:d4:ca:f1:b9:76:d8:11:2e:e1:ef:7b:a0:05:89:
                    ee:1f:1a:eb:77:df:80:96:3d:d1:90:45:4c:6e:5a:
                    a0:d4:01:f7:07:fb:73:08:a8:87:a3:cd:31:1f:5a:
                    4c:72:da:a9:67:ac:d4:59:ba:16:2d:96:89:ea:fc:
                    2e:aa:c5:86:19:86:c6:b5:c8:0e:b0:18:58:ab:cb:
                    f8:cc:d3:b2:42:61:49:78:e4:07:d1:86:2c:63:6f:
                    38:ee:59:b8:10:d7:9e:1b:b2:d1:a9:7c:c9:c4:49:
                    39:ba:bd:c9:62:08:39:aa:94:56:d6:4f:24:ce:2a:
                    79:a7:fd:99:ad:71:4d:d7:e0:ec:bf:c9:4b:b6:e5:
                    34:10:22:99:8a:8d:79:88:69:9f:25:d9:e4:50:ac:
                    fd:d6:f0:98:7c:bd:da:7b:7e:fa:ae:d3:0a:4f:e0:
                    e6:ff:65:7d:73:57:f9:80:d5:f6:28:b4:30:11:4a:
                    12:18:35:5b:1d:0b:fc:9f:68:07:00:cc:f4:3b:8b:
                    6d:32:70:46:8b:76:d1:20:21:24:e6:d2:1b:01:fc:
                    17:9d:44:93:0a:98:ab:0c:d2:47:16:f4:a1:4a:c1:
                    c7:fc:5c:fb:9b:bb:ab:19:85:5a:84:00:75:9b:08:
                    ff:c1
                Exponent: 65537 (0x10001)
        X509v3 extensions:
            X509v3 Basic Constraints: 
                CA:FALSE
            X509v3 Key Usage: 
                Digital Signature
            Netscape Comment: 
                OpenSSL Generated Certificate
            X509v3 Subject Key Identifier: 
                18:E0:A3:E2:B8:4E:6A:2F:0B:6F:6C:FB:6D:38:8A:00:A4:99:A8:21
            X509v3 Authority Key Identifier: 
                25:93:65:22:C2:65:97:E5:84:A9:A3:7F:35:5E:7E:85:F4:21:AF:40
            X509v3 CRL Distribution Points: 
                Full Name:
                  URI:http://192.168.21.89/rootcrl.pem
    Signature Algorithm: sha1WithRSAEncryption
    Signature Value:
        a1:b5:1d:25:ea:7f:03:de:1c:28:f6:d9:60:6a:69:68:3d:08:
        44:08:c5:03:0a:81:ae:e6:49:9a:37:f8:1c:4d:c0:0e:ef:13:
        de:2f:29:66:df:3f:63:e1:8f:d5:bc:e7:12:3e:5f:b8:ce:fe:
        2a:59:1e:6a:52:e0:1e:b5:7f:f5:ce:1c:4a:fb:d2:f2:77:26:
        e0:81:26:ce:62:a3:f2:dc:5d:fc:3a:bf:36:19:b4:fc:96:5b:
        12:f4:3f:17:ab:b2:76:9f:a0:5a:00:36:1b:70:63:dc:15:6a:
        db:04:d9:86:f5:ac:32:54:ae:3b:a5:b4:da:b7:4e:cd:54:82:
        7b:6b:f3:6d:5e:da:86:49:5c:db:83:c8:e9:21:ff:94:37:e9:
        dd:68:86:ea:a3:42:37:5c:0b:14:de:bd:e7:cf:d2:b4:e2:d5:
        4a:6f:46:4c:13:77:7a:08:e8:0f:7b:8f:bd:a9:f3:99:d4:d6:
        8f:26:e3:42:62:80:b8:62:51:78:9b:0f:1c:19:1b:89:d1:d2:
        f4:bd:a9:87:ed:63:58:68:73:f4:ce:a7:58:07:8a:8d:1e:4b:
        85:8e:f6:b0:fa:9d:c4:10:98:89:df:18:ed:c9:e1:97:25:c3:
        08:92:32:71:82:03:c1:66:72:ae:5b:6c:fd:6d:8c:aa:0e:7e:
        80:bb:27:25:5c:eb:8d:fd:ab:0d:08:c2:37:ce:fb:b4:5a:9e:
        dd:53:c5:66:56:d2:26:fc:17:c2:09:9c:98:e2:61:27:f6:c5:
        12:6c:44:c9:db:7d:ab:22:46:30:62:7f:bb:47:ad:bd:b4:39:
        eb:61:47:39:c7:64:f0:84:ee:51:a3:26:56:e6:4c:06:1c:8e:
        bf:cd:50:40:1f:3f:b4:c0:6f:47:be:a1:a7:a7:d1:58:16:7d:
        5c:67:06:4a:b2:2b:75:89:3b:66:9b:26:6e:7a:39:73:22:77:
        eb:10:35:6f:95:45:3e:05:3a:43:88:be:27:50:68:a3:db:18:
        e5:a5:a9:70:a8:e7:bc:4d:b7:33:01:b7:f2:fe:fe:5d:99:c1:
        4b:f5:44:1c:c8:3a:ac:e1:19:36:2d:45:1d:f1:53:56:a6:23:
        70:44:55:6e:d9:95:e6:51:52:60:ff:ac:18:8a:c1:54:c9:b5:
        d5:63:dc:68:7e:1f:e2:a8:2a:12:e0:c3:16:bf:c0:0f:2c:90:
        9d:e9:4d:2e:1d:9c:59:a8:bc:f7:b7:1b:a3:05:e4:9a:04:fe:
        9b:20:8f:ee:d7:b5:ae:aa:fa:d1:24:ce:d7:93:e2:76:09:8c:
        15:ad:b4:77:6f:15:bc:34:01:0a:65:28:ec:95:44:84:57:92:
        7a:6e:8a:c0:07:b7:b7:39
-----BEGIN CERTIFICATE-----
MIIFQzCCAyugAwIBAgIBAzANBgkqhkiG9w0BAQUFADCBkDELMAkGA1UEBhMCQkEx
CzAJBgNVBAgTAlJTMRMwEQYDVQQHEwpCYW5qYSBMdWthMSEwHwYDVQQKExhFbGVr
dHJvdGVobmlja2kgZmFrdWx0ZXQxDDAKBgNVBAsTA0VURjESMBAGA1UEAxMJQ0Eg
dGlqZWxvMRowGAYJKoZIhvcNAQkBFgtjYUBtYWlsLmNvbTAeFw0yMzA0MDYwOTA5
NDBaFw0yMzEwMDMwOTA5NDBaMHoxCzAJBgNVBAYTAkJBMQswCQYDVQQIEwJSUzEh
MB8GA1UEChMYRWxla3Ryb3RlaG5pY2tpIGZha3VsdGV0MQwwCgYDVQQLEwNFVEYx
DjAMBgNVBAMTBXVzZXIzMR0wGwYJKoZIhvcNAQkBFg51c2VyM0BtYWlsLmNvbTCC
ASIwDQYJKoZIhvcNAQEBBQADggEPADCCAQoCggEBAM+o4OUPvW+06es6rq3tv9TK
8bl22BEu4e97oAWJ7h8a63ffgJY90ZBFTG5aoNQB9wf7cwioh6PNMR9aTHLaqWes
1Fm6Fi2Wier8LqrFhhmGxrXIDrAYWKvL+MzTskJhSXjkB9GGLGNvOO5ZuBDXnhuy
0al8ycRJObq9yWIIOaqUVtZPJM4qeaf9ma1xTdfg7L/JS7blNBAimYqNeYhpnyXZ
5FCs/dbwmHy92nt++q7TCk/g5v9lfXNX+YDV9ii0MBFKEhg1Wx0L/J9oBwDM9DuL
bTJwRot20SAhJObSGwH8F51EkwqYqwzSRxb0oUrBx/xc+5u7qxmFWoQAdZsI/8EC
AwEAAaOBvDCBuTAJBgNVHRMEAjAAMAsGA1UdDwQEAwIHgDAsBglghkgBhvhCAQ0E
HxYdT3BlblNTTCBHZW5lcmF0ZWQgQ2VydGlmaWNhdGUwHQYDVR0OBBYEFBjgo+K4
TmovC29s+204igCkmaghMB8GA1UdIwQYMBaAFCWTZSLCZZflhKmjfzVefoX0Ia9A
MDEGA1UdHwQqMCgwJqAkoCKGIGh0dHA6Ly8xOTIuMTY4LjIxLjg5L3Jvb3Rjcmwu
cGVtMA0GCSqGSIb3DQEBBQUAA4ICAQChtR0l6n8D3hwo9tlgamloPQhECMUDCoGu
5kmaN/gcTcAO7xPeLylm3z9j4Y/VvOcSPl+4zv4qWR5qUuAetX/1zhxK+9Lydybg
gSbOYqPy3F38Or82GbT8llsS9D8Xq7J2n6BaADYbcGPcFWrbBNmG9awyVK47pbTa
t07NVIJ7a/NtXtqGSVzbg8jpIf+UN+ndaIbqo0I3XAsU3r3nz9K04tVKb0ZME3d6
COgPe4+9qfOZ1NaPJuNCYoC4YlF4mw8cGRuJ0dL0vamH7WNYaHP0zqdYB4qNHkuF
jvaw+p3EEJiJ3xjtyeGXJcMIkjJxggPBZnKuW2z9bYyqDn6AuyclXOuN/asNCMI3
zvu0Wp7dU8VmVtIm/BfCCZyY4mEn9sUSbETJ232rIkYwYn+7R629tDnrYUc5x2Tw
hO5RoyZW5kwGHI6/zVBAHz+0wG9HvqGnp9FYFn1cZwZKsit1iTtmmyZuejlzInfr
EDVvlUU+BTpDiL4nUGij2xjlpalwqOe8TbczAbfy/v5dmcFL9UQcyDqs4Rk2LUUd
8VNWpiNwRFVu2ZXmUVJg/6wYisFUybXVY9xofh/iqCoS4MMWv8APLJCd6U0uHZxZ
qLz3txujBeSaBP6bII/u17WuqvrRJM7Xk+J2CYwVrbR3bxW8NAEKZSjslUSEV5J6
borAB7e3OQ==
-----END CERTIFICATE-----
